target datalayout = "e-m:e-p270:32:32-p271:32:32-p272:64:64-i64:64-i128:128-f80:128-n8:16:32:64-S128"
target triple = "x86_64-pc-linux-gnu"

@.str = private unnamed_addr constant [33 x i8] c"../openssl/crypto/modes/siv128.c\00", align 1

; Function Attrs: nounwind uwtable
define ptr @ossl_siv128_new(ptr noundef %0, i32 noundef %1, ptr noundef %2, ptr noundef %3, ptr noundef %4, ptr noundef %5) #0 {
  %7 = alloca ptr, align 8
  %8 = alloca ptr, align 8
  %9 = alloca i32, align 4
  %10 = alloca ptr, align 8
  %11 = alloca ptr, align 8
  %12 = alloca ptr, align 8
  %13 = alloca ptr, align 8
  %14 = alloca ptr, align 8
  %15 = alloca i32, align 4
  %16 = alloca i32, align 4
  store ptr %0, ptr %8, align 8, !tbaa !3
  store i32 %1, ptr %9, align 4, !tbaa !8
  store ptr %2, ptr %10, align 8, !tbaa !10
  store ptr %3, ptr %11, align 8, !tbaa !10
  store ptr %4, ptr %12, align 8, !tbaa !12
  store ptr %5, ptr %13, align 8, !tbaa !3
  call void @llvm.lifetime.start.p0(i64 8, ptr %14) #6
  call void @llvm.lifetime.start.p0(i64 4, ptr %15) #6
  %17 = call noalias ptr @CRYPTO_malloc(i64 noundef 64, ptr noundef @.str, i32 noundef 150)
  store ptr %17, ptr %14, align 8, !tbaa !14
  %18 = icmp ne ptr %17, null
  br i1 %18, label %19, label %34

19:                                               ; preds = %6
  %20 = load ptr, ptr %14, align 8, !tbaa !14
  %21 = load ptr, ptr %8, align 8, !tbaa !3
  %22 = load i32, ptr %9, align 4, !tbaa !8
  %23 = load ptr, ptr %10, align 8, !tbaa !10
  %24 = load ptr, ptr %11, align 8, !tbaa !10
  %25 = load ptr, ptr %12, align 8, !tbaa !12
  %26 = load ptr, ptr %13, align 8, !tbaa !3
  %27 = call i32 @ossl_siv128_init(ptr noundef %20, ptr noundef %21, i32 noundef %22, ptr noundef %23, ptr noundef %24, ptr noundef %25, ptr noundef %26)
  store i32 %27, ptr %15, align 4, !tbaa !8
  %28 = load i32, ptr %15, align 4, !tbaa !8
  %29 = icmp ne i32 %28, 0
  br i1 %29, label %30, label %32

30:                                               ; preds = %19
  %31 = load ptr, ptr %14, align 8, !tbaa !14
  store ptr %31, ptr %7, align 8
  store i32 1, ptr %16, align 4
  br label %35

32:                                               ; preds = %19
  %33 = load ptr, ptr %14, align 8, !tbaa !14
  call void @CRYPTO_free(ptr noundef %33, ptr noundef @.str, i32 noundef 154)
  br label %34

34:                                               ; preds = %32, %6
  store ptr null, ptr %7, align 8
  store i32 1, ptr %16, align 4
  br label %35

35:                                               ; preds = %34, %30
  call void @llvm.lifetime.end.p0(i64 4, ptr %15) #6
  call void @llvm.lifetime.end.p0(i64 8, ptr %14) #6
  %36 = load ptr, ptr %7, align 8
  ret ptr %36
}