; Function Attrs: nounwind uwtable
define ptr @ossl_siv128_new(ptr noundef %0, i32 noundef %1, ptr noundef %2, ptr noundef %3, ptr noundef %4, ptr noundef %5) local_unnamed_addr #0 {
  %7 = tail call noalias ptr @CRYPTO_malloc(i64 noundef 64, ptr noundef nonnull @.str, i32 noundef 150) #10
  %.not = icmp eq ptr %7, null
  br i1 %.not, label %11, label %8

8:                                                ; preds = %6
  %9 = tail call i32 @ossl_siv128_init(ptr noundef nonnull %7, ptr noundef %0, i32 noundef %1, ptr noundef %2, ptr noundef %3, ptr noundef %4, ptr noundef %5)
  %.not11 = icmp eq i32 %9, 0
  br i1 %.not11, label %10, label %11

10:                                               ; preds = %8
  tail call void @CRYPTO_free(ptr noundef nonnull %7, ptr noundef nonnull @.str, i32 noundef 154) #10
  br label %11

11:                                               ; preds = %6, %10, %8
  %.0 = phi ptr [ %7, %8 ], [ null, %10 ], [ null, %6 ]
  ret ptr %.0
}